; Function Attrs: mustprogress nofree norecurse nosync nounwind memory(argmem: write) uwtable
define void @_ZN6LibRaw9PentaxISOEt(ptr noundef nonnull writeonly align 8 captures(none) dereferenceable(767680) %0, i16 noundef zeroext %1) local_unnamed_addr #1 align 2 {
  %3 = zext i16 %1 to i32
  br label %4

4:                                                ; preds = %2, %12
  %indvars.iv = phi i64 [ 0, %2 ], [ %indvars.iv.next, %12 ]
  %5 = getelementptr inbounds nuw [71 x i32], ptr @__const._ZN6LibRaw9PentaxISOEt.code, i64 0, i64 %indvars.iv
  %6 = load i32, ptr %5, align 4, !tbaa !76
  %7 = icmp eq i32 %6, %3
  br i1 %7, label %8, label %12

8:                                                ; preds = %4
  %9 = getelementptr inbounds nuw [71 x double], ptr @__const._ZN6LibRaw9PentaxISOEt.value, i64 0, i64 %indvars.iv
  %10 = load double, ptr %9, align 8, !tbaa !77
  %11 = fptrunc reassoc nsz arcp contract afn double %10 to float
  br label %.loopexit

12:                                               ; preds = %4
  %indvars.iv.next = add nuw nsw i64 %indvars.iv, 1
  %exitcond.not = icmp eq i64 %indvars.iv.next, 71
  br i1 %exitcond.not, label %.loopexit, label %4, !llvm.loop !78

.loopexit:                                        ; preds = %12, %8
  %.sink = phi float [ %11, %8 ], [ 6.553500e+04, %12 ]
  %13 = getelementptr inbounds nuw i8, ptr %0, i64 192552
  store float %.sink, ptr %13, align 8, !tbaa !80
  ret void
}